; Function Attrs: null_pointer_is_valid sspstrong uwtable
define float @tvb_get_ieee_float(ptr noundef %0, i32 noundef %1, i32 noundef %2) local_unnamed_addr #0 {
  %.not = icmp sgt i32 %2, -1
  %4 = tail call fastcc ptr @fast_ensure_contiguous(ptr noundef %0, i32 noundef %1, i32 noundef 4)
  br i1 %.not, label %7, label %5

5:                                                ; preds = %3
  %6 = load float, ptr %4, align 1
  br label %26

7:                                                ; preds = %3
  %8 = load i8, ptr %4, align 1
  %9 = zext i8 %8 to i32
  %10 = shl nuw i32 %9, 24
  %11 = getelementptr i8, ptr %4, i64 1
  %12 = load i8, ptr %11, align 1
  %13 = zext i8 %12 to i32
  %14 = shl nuw nsw i32 %13, 16
  %15 = or disjoint i32 %14, %10
  %16 = getelementptr i8, ptr %4, i64 2
  %17 = load i8, ptr %16, align 1
  %18 = zext i8 %17 to i32
  %19 = shl nuw nsw i32 %18, 8
  %20 = or disjoint i32 %15, %19
  %21 = getelementptr i8, ptr %4, i64 3
  %22 = load i8, ptr %21, align 1
  %23 = zext i8 %22 to i32
  %24 = or disjoint i32 %20, %23
  %25 = bitcast i32 %24 to float
  br label %26

26:                                               ; preds = %7, %5
  %.0 = phi float [ %6, %5 ], [ %25, %7 ]
  ret float %.0
}